; Function Attrs: null_pointer_is_valid sspstrong uwtable
define hidden i32 @samr_dissect_struct_UserInfo18(ptr noundef %0, i32 noundef %1, ptr noundef %2, ptr noundef %3, ptr noundef %4, ptr noundef %5, i32 noundef %6, i32 %7) local_unnamed_addr #0 {
  %.not = icmp eq ptr %3, null
  br i1 %.not, label %.thread, label %9

9:                                                ; preds = %8
  %10 = tail call ptr @proto_tree_add_item(ptr noundef nonnull %3, i32 noundef %6, ptr noundef %0, i32 noundef %1, i32 noundef -1, i32 noundef 0)
  %11 = load i32, ptr @ett_samr_samr_UserInfo18, align 4
  %12 = tail call ptr @proto_item_add_subtree(ptr noundef %10, i32 noundef %11)
  %.not.i.i = icmp eq ptr %12, null
  br i1 %.not.i.i, label %.thread, label %13

13:                                               ; preds = %9
  %14 = load i32, ptr @hf_samr_samr_UserInfo18_nt_pwd, align 4
  %15 = tail call ptr @proto_tree_add_item(ptr noundef nonnull %12, i32 noundef %14, ptr noundef %0, i32 noundef %1, i32 noundef -1, i32 noundef 0)
  %16 = load i32, ptr @ett_samr_samr_Password, align 4
  %17 = tail call ptr @proto_item_add_subtree(ptr noundef %15, i32 noundef %16)
  br label %.thread

.thread:                                          ; preds = %8, %13, %9
  %.not.i.i53 = phi i1 [ false, %13 ], [ true, %9 ], [ true, %8 ]
  %.052 = phi ptr [ %12, %13 ], [ null, %9 ], [ null, %8 ]
  %.04051 = phi ptr [ %10, %13 ], [ %10, %9 ], [ null, %8 ]
  %.016.i.i = phi ptr [ %15, %13 ], [ null, %9 ], [ null, %8 ]
  %.0.i.i = phi ptr [ %17, %13 ], [ null, %9 ], [ null, %8 ]
  br label %18

18:                                               ; preds = %18, %.thread
  %.010.i.i.i = phi i32 [ 0, %.thread ], [ %21, %18 ]
  %.089.i.i.i = phi i32 [ %1, %.thread ], [ %20, %18 ]
  %19 = load i32, ptr @hf_samr_samr_Password_hash, align 4
  %20 = tail call i32 @PIDL_dissect_uint8(ptr noundef %0, i32 noundef %.089.i.i.i, ptr noundef %2, ptr noundef %.0.i.i, ptr noundef %4, ptr noundef %5, i32 noundef %19, i32 noundef 0)
  %21 = add nuw nsw i32 %.010.i.i.i, 1
  %exitcond.not.i.i.i = icmp eq i32 %21, 16
  br i1 %exitcond.not.i.i.i, label %samr_dissect_element_UserInfo18_nt_pwd.exit, label %18, !llvm.loop !8

samr_dissect_element_UserInfo18_nt_pwd.exit:      ; preds = %18
  %22 = sub i32 %20, %1
  tail call void @proto_item_set_len(ptr noundef %.016.i.i, i32 noundef %22)
  br i1 %.not.i.i53, label %28, label %23

23:                                               ; preds = %samr_dissect_element_UserInfo18_nt_pwd.exit
  %24 = load i32, ptr @hf_samr_samr_UserInfo18_lm_pwd, align 4
  %25 = tail call ptr @proto_tree_add_item(ptr noundef nonnull %.052, i32 noundef %24, ptr noundef %0, i32 noundef %20, i32 noundef -1, i32 noundef 0)
  %26 = load i32, ptr @ett_samr_samr_Password, align 4
  %27 = tail call ptr @proto_item_add_subtree(ptr noundef %25, i32 noundef %26)
  br label %28

28:                                               ; preds = %23, %samr_dissect_element_UserInfo18_nt_pwd.exit
  %.016.i.i43 = phi ptr [ %25, %23 ], [ null, %samr_dissect_element_UserInfo18_nt_pwd.exit ]
  %.0.i.i44 = phi ptr [ %27, %23 ], [ null, %samr_dissect_element_UserInfo18_nt_pwd.exit ]
  br label %29

29:                                               ; preds = %29, %28
  %.010.i.i.i45 = phi i32 [ 0, %28 ], [ %32, %29 ]
  %.089.i.i.i46 = phi i32 [ %20, %28 ], [ %31, %29 ]
  %30 = load i32, ptr @hf_samr_samr_Password_hash, align 4
  %31 = tail call i32 @PIDL_dissect_uint8(ptr noundef %0, i32 noundef %.089.i.i.i46, ptr noundef %2, ptr noundef %.0.i.i44, ptr noundef %4, ptr noundef %5, i32 noundef %30, i32 noundef 0)
  %32 = add nuw nsw i32 %.010.i.i.i45, 1
  %exitcond.not.i.i.i47 = icmp eq i32 %32, 16
  br i1 %exitcond.not.i.i.i47, label %samr_dissect_element_UserInfo18_lm_pwd.exit, label %29, !llvm.loop !8

samr_dissect_element_UserInfo18_lm_pwd.exit:      ; preds = %29
  %33 = sub i32 %31, %20
  tail call void @proto_item_set_len(ptr noundef %.016.i.i43, i32 noundef %33)
  %34 = load i32, ptr @hf_samr_samr_UserInfo18_nt_pwd_active, align 4
  %35 = tail call i32 @PIDL_dissect_uint8(ptr noundef %0, i32 noundef %31, ptr noundef %2, ptr noundef %.052, ptr noundef %4, ptr noundef %5, i32 noundef %34, i32 noundef 0)
  %36 = load i32, ptr @hf_samr_samr_UserInfo18_lm_pwd_active, align 4
  %37 = tail call i32 @PIDL_dissect_uint8(ptr noundef %0, i32 noundef %35, ptr noundef %2, ptr noundef %.052, ptr noundef %4, ptr noundef %5, i32 noundef %36, i32 noundef 0)
  %38 = load i32, ptr @hf_samr_samr_UserInfo18_password_expired, align 4
  %39 = tail call i32 @PIDL_dissect_uint8(ptr noundef %0, i32 noundef %37, ptr noundef %2, ptr noundef %.052, ptr noundef %4, ptr noundef %5, i32 noundef %38, i32 noundef 0)
  %40 = sub i32 %39, %1
  tail call void @proto_item_set_len(ptr noundef %.04051, i32 noundef %40)
  ret i32 %39
}